target datalayout = "e-m:e-p270:32:32-p271:32:32-p272:64:64-i64:64-i128:128-f80:128-n8:16:32:64-S128"
target triple = "x86_64-unknown-linux-gnu"

%"class.icu_75::UnicodeString" = type { %"class.icu_75::Replaceable", %"union.icu_75::UnicodeString::StackBufferOrFields" }
%"class.icu_75::Replaceable" = type { %"class.icu_75::UObject" }
%"class.icu_75::UObject" = type { ptr }
%"union.icu_75::UnicodeString::StackBufferOrFields" = type { %struct.anon.0, [32 x i8] }
%struct.anon.0 = type { i16, i32, i32, ptr }
%struct.anon = type { i16, [27 x i16] }

; Function Attrs: mustprogress nounwind uwtable
define linkonce_odr noundef i32 @_ZNK6icu_7513UnicodeString14getShortLengthEv(ptr noundef nonnull align 8 dereferenceable(64) %this) #0 comdat align 2 {
entry:
  %this.addr = alloca ptr, align 8
  store ptr %this, ptr %this.addr, align 8
  %this1 = load ptr, ptr %this.addr, align 8
  %fUnion = getelementptr inbounds %"class.icu_75::UnicodeString", ptr %this1, i32 0, i32 1
  %fLengthAndFlags = getelementptr inbounds %struct.anon.0, ptr %fUnion, i32 0, i32 0
  %0 = load i16, ptr %fLengthAndFlags, align 8
  %conv = sext i16 %0 to i32
  %shr = ashr i32 %conv, 5
  ret i32 %shr
}

; Function Attrs: mustprogress nounwind uwtable
define linkonce_odr noundef signext i8 @_ZNK6icu_7513UnicodeString14hasShortLengthEv(ptr noundef nonnull align 8 dereferenceable(64) %this) #0 comdat align 2 {
entry:
  %this.addr = alloca ptr, align 8
  store ptr %this, ptr %this.addr, align 8
  %this1 = load ptr, ptr %this.addr, align 8
  %fUnion = getelementptr inbounds %"class.icu_75::UnicodeString", ptr %this1, i32 0, i32 1
  %fLengthAndFlags = getelementptr inbounds %struct.anon.0, ptr %fUnion, i32 0, i32 0
  %0 = load i16, ptr %fLengthAndFlags, align 8
  %conv = sext i16 %0 to i32
  %cmp = icmp sge i32 %conv, 0
  %conv2 = zext i1 %cmp to i8
  ret i8 %conv2
}

; Function Attrs: mustprogress uwtable
define linkonce_odr noundef i32 @_ZNK6icu_7513UnicodeString6lengthEv(ptr noundef nonnull align 8 dereferenceable(64) %this) #3 comdat align 2 {
entry:
  %this.addr = alloca ptr, align 8
  store ptr %this, ptr %this.addr, align 8
  %this1 = load ptr, ptr %this.addr, align 8
  %call = call noundef signext i8 @_ZNK6icu_7513UnicodeString14hasShortLengthEv(ptr noundef nonnull align 8 dereferenceable(64) %this1)
  %tobool = icmp ne i8 %call, 0
  br i1 %tobool, label %cond.true, label %cond.false

cond.true:                                        ; preds = %entry
  %call2 = call noundef i32 @_ZNK6icu_7513UnicodeString14getShortLengthEv(ptr noundef nonnull align 8 dereferenceable(64) %this1)
  br label %cond.end

cond.false:                                       ; preds = %entry
  %fUnion = getelementptr inbounds %"class.icu_75::UnicodeString", ptr %this1, i32 0, i32 1
  %fLength = getelementptr inbounds %struct.anon.0, ptr %fUnion, i32 0, i32 1
  %0 = load i32, ptr %fLength, align 4
  br label %cond.end

cond.end:                                         ; preds = %cond.false, %cond.true
  %cond = phi i32 [ %call2, %cond.true ], [ %0, %cond.false ]
  ret i32 %cond
}

; Function Attrs: mustprogress nounwind uwtable
define linkonce_odr noundef ptr @_ZNK6icu_7513UnicodeString9getBufferEv(ptr noundef nonnull align 8 dereferenceable(64) %this) #0 comdat align 2 {
entry:
  %retval = alloca ptr, align 8
  %this.addr = alloca ptr, align 8
  store ptr %this, ptr %this.addr, align 8
  %this1 = load ptr, ptr %this.addr, align 8
  %fUnion = getelementptr inbounds %"class.icu_75::UnicodeString", ptr %this1, i32 0, i32 1
  %fLengthAndFlags = getelementptr inbounds %struct.anon.0, ptr %fUnion, i32 0, i32 0
  %0 = load i16, ptr %fLengthAndFlags, align 8
  %conv = sext i16 %0 to i32
  %and = and i32 %conv, 17
  %tobool = icmp ne i32 %and, 0
  br i1 %tobool, label %if.then, label %if.else

if.then:                                          ; preds = %entry
  store ptr null, ptr %retval, align 8
  br label %return

if.else:                                          ; preds = %entry
  %fUnion2 = getelementptr inbounds %"class.icu_75::UnicodeString", ptr %this1, i32 0, i32 1
  %fLengthAndFlags3 = getelementptr inbounds %struct.anon.0, ptr %fUnion2, i32 0, i32 0
  %1 = load i16, ptr %fLengthAndFlags3, align 8
  %conv4 = sext i16 %1 to i32
  %and5 = and i32 %conv4, 2
  %tobool6 = icmp ne i32 %and5, 0
  br i1 %tobool6, label %if.then7, label %if.else9

if.then7:                                         ; preds = %if.else
  %fUnion8 = getelementptr inbounds %"class.icu_75::UnicodeString", ptr %this1, i32 0, i32 1
  %fBuffer = getelementptr inbounds %struct.anon, ptr %fUnion8, i32 0, i32 1
  %arraydecay = getelementptr inbounds [27 x i16], ptr %fBuffer, i64 0, i64 0
  store ptr %arraydecay, ptr %retval, align 8
  br label %return

if.else9:                                         ; preds = %if.else
  %fUnion10 = getelementptr inbounds %"class.icu_75::UnicodeString", ptr %this1, i32 0, i32 1
  %fArray = getelementptr inbounds %struct.anon.0, ptr %fUnion10, i32 0, i32 3
  %2 = load ptr, ptr %fArray, align 8
  store ptr %2, ptr %retval, align 8
  br label %return

return:                                           ; preds = %if.else9, %if.then7, %if.then
  %3 = load ptr, ptr %retval, align 8
  ret ptr %3
}

; Function Attrs: mustprogress uwtable
define linkonce_odr void @_ZNK6icu_7513UnicodeString10pinIndicesERiS1_(ptr noundef nonnull align 8 dereferenceable(64) %this, ptr noundef nonnull align 4 dereferenceable(4) %start, ptr noundef nonnull align 4 dereferenceable(4) %_length) #3 comdat align 2 {
entry:
  %this.addr = alloca ptr, align 8
  %start.addr = alloca ptr, align 8
  %_length.addr = alloca ptr, align 8
  %len = alloca i32, align 4
  store ptr %this, ptr %this.addr, align 8
  store ptr %start, ptr %start.addr, align 8
  store ptr %_length, ptr %_length.addr, align 8
  %this1 = load ptr, ptr %this.addr, align 8
  %call = call noundef i32 @_ZNK6icu_7513UnicodeString6lengthEv(ptr noundef nonnull align 8 dereferenceable(64) %this1)
  store i32 %call, ptr %len, align 4
  %0 = load ptr, ptr %start.addr, align 8
  %1 = load i32, ptr %0, align 4
  %cmp = icmp slt i32 %1, 0
  br i1 %cmp, label %if.then, label %if.else

if.then:                                          ; preds = %entry
  %2 = load ptr, ptr %start.addr, align 8
  store i32 0, ptr %2, align 4
  br label %if.end4

if.else:                                          ; preds = %entry
  %3 = load ptr, ptr %start.addr, align 8
  %4 = load i32, ptr %3, align 4
  %5 = load i32, ptr %len, align 4
  %cmp2 = icmp sgt i32 %4, %5
  br i1 %cmp2, label %if.then3, label %if.end

if.then3:                                         ; preds = %if.else
  %6 = load i32, ptr %len, align 4
  %7 = load ptr, ptr %start.addr, align 8
  store i32 %6, ptr %7, align 4
  br label %if.end

if.end:                                           ; preds = %if.then3, %if.else
  br label %if.end4

if.end4:                                          ; preds = %if.end, %if.then
  %8 = load ptr, ptr %_length.addr, align 8
  %9 = load i32, ptr %8, align 4
  %cmp5 = icmp slt i32 %9, 0
  br i1 %cmp5, label %if.then6, label %if.else7

if.then6:                                         ; preds = %if.end4
  %10 = load ptr, ptr %_length.addr, align 8
  store i32 0, ptr %10, align 4
  br label %if.end12

if.else7:                                         ; preds = %if.end4
  %11 = load ptr, ptr %_length.addr, align 8
  %12 = load i32, ptr %11, align 4
  %13 = load i32, ptr %len, align 4
  %14 = load ptr, ptr %start.addr, align 8
  %15 = load i32, ptr %14, align 4
  %sub = sub nsw i32 %13, %15
  %cmp8 = icmp sgt i32 %12, %sub
  br i1 %cmp8, label %if.then9, label %if.end11

if.then9:                                         ; preds = %if.else7
  %16 = load i32, ptr %len, align 4
  %17 = load ptr, ptr %start.addr, align 8
  %18 = load i32, ptr %17, align 4
  %sub10 = sub nsw i32 %16, %18
  %19 = load ptr, ptr %_length.addr, align 8
  store i32 %sub10, ptr %19, align 4
  br label %if.end11

if.end11:                                         ; preds = %if.then9, %if.else7
  br label %if.end12

if.end12:                                         ; preds = %if.end11, %if.then6
  ret void
}

; Function Attrs: mustprogress uwtable
define noundef i32 @_ZNK6icu_7513UnicodeString6toUTF8EiiPci(ptr noundef nonnull align 8 dereferenceable(64) %this, i32 noundef %start, i32 noundef %len, ptr noundef %target, i32 noundef %capacity) #3 align 2 {
entry:
  %this.addr = alloca ptr, align 8
  %start.addr = alloca i32, align 4
  %len.addr = alloca i32, align 4
  %target.addr = alloca ptr, align 8
  %capacity.addr = alloca i32, align 4
  %length8 = alloca i32, align 4
  %errorCode = alloca i32, align 4
  store ptr %this, ptr %this.addr, align 8
  store i32 %start, ptr %start.addr, align 4
  store i32 %len, ptr %len.addr, align 4
  store ptr %target, ptr %target.addr, align 8
  store i32 %capacity, ptr %capacity.addr, align 4
  %this1 = load ptr, ptr %this.addr, align 8
  call void @_ZNK6icu_7513UnicodeString10pinIndicesERiS1_(ptr noundef nonnull align 8 dereferenceable(64) %this1, ptr noundef nonnull align 4 dereferenceable(4) %start.addr, ptr noundef nonnull align 4 dereferenceable(4) %len.addr)
  store i32 0, ptr %errorCode, align 4
  %0 = load ptr, ptr %target.addr, align 8
  %1 = load i32, ptr %capacity.addr, align 4
  %call = call noundef ptr @_ZNK6icu_7513UnicodeString9getBufferEv(ptr noundef nonnull align 8 dereferenceable(64) %this1)
  %2 = load i32, ptr %start.addr, align 4
  %idx.ext = sext i32 %2 to i64
  %add.ptr = getelementptr inbounds i16, ptr %call, i64 %idx.ext
  %3 = load i32, ptr %len.addr, align 4
  %call2 = call ptr @u_strToUTF8WithSub_75(ptr noundef %0, i32 noundef %1, ptr noundef %length8, ptr noundef %add.ptr, i32 noundef %3, i32 noundef 65533, ptr noundef null, ptr noundef %errorCode)
  %4 = load i32, ptr %length8, align 4
  ret i32 %4
}

; Function Attrs: mustprogress uwtable
define noundef i32 @_ZNK6icu_7513UnicodeString7extractEiiPcj(ptr noundef nonnull align 8 dereferenceable(64) %this, i32 noundef %start, i32 noundef %len, ptr noundef %target, i32 noundef %dstSize) #3 align 2 {
entry:
  %retval = alloca i32, align 4
  %this.addr = alloca ptr, align 8
  %start.addr = alloca i32, align 4
  %len.addr = alloca i32, align 4
  %target.addr = alloca ptr, align 8
  %dstSize.addr = alloca i32, align 4
  store ptr %this, ptr %this.addr, align 8
  store i32 %start, ptr %start.addr, align 4
  store i32 %len, ptr %len.addr, align 4
  store ptr %target, ptr %target.addr, align 8
  store i32 %dstSize, ptr %dstSize.addr, align 4
  %this1 = load ptr, ptr %this.addr, align 8
  %0 = load i32, ptr %dstSize.addr, align 4
  %cmp = icmp ugt i32 %0, 0
  br i1 %cmp, label %land.lhs.true, label %if.end

land.lhs.true:                                    ; preds = %entry
  %1 = load ptr, ptr %target.addr, align 8
  %cmp2 = icmp eq ptr %1, null
  br i1 %cmp2, label %if.then, label %if.end

if.then:                                          ; preds = %land.lhs.true
  store i32 0, ptr %retval, align 4
  br label %return

if.end:                                           ; preds = %land.lhs.true, %entry
  %2 = load i32, ptr %start.addr, align 4
  %3 = load i32, ptr %len.addr, align 4
  %4 = load ptr, ptr %target.addr, align 8
  %5 = load i32, ptr %dstSize.addr, align 4
  %cmp3 = icmp ule i32 %5, 2147483647
  br i1 %cmp3, label %cond.true, label %cond.false

cond.true:                                        ; preds = %if.end
  %6 = load i32, ptr %dstSize.addr, align 4
  br label %cond.end

cond.false:                                       ; preds = %if.end
  br label %cond.end

cond.end:                                         ; preds = %cond.false, %cond.true
  %cond = phi i32 [ %6, %cond.true ], [ 2147483647, %cond.false ]
  %call = call noundef i32 @_ZNK6icu_7513UnicodeString6toUTF8EiiPci(ptr noundef nonnull align 8 dereferenceable(64) %this1, i32 noundef %2, i32 noundef %3, ptr noundef %4, i32 noundef %cond)
  store i32 %call, ptr %retval, align 4
  br label %return

return:                                           ; preds = %cond.end, %if.then
  %7 = load i32, ptr %retval, align 4
  ret i32 %7
}