; Function Attrs: mustprogress uwtable
define noundef i32 @_ZNK6icu_7513UnicodeString7extractEiiPcj(ptr noundef nonnull align 8 dereferenceable(64) %this, i32 noundef %start, i32 noundef %len, ptr noundef %target, i32 noundef %dstSize) local_unnamed_addr #5 align 2 {
entry:
  %length8.i = alloca i32, align 4
  %errorCode.i = alloca i32, align 4
  %cmp = icmp ne i32 %dstSize, 0
  %cmp2 = icmp eq ptr %target, null
  %or.cond = and i1 %cmp2, %cmp
  br i1 %or.cond, label %return, label %if.end

if.end:                                           ; preds = %entry
  %cmp3 = icmp sgt i32 %dstSize, -1
  %cond = select i1 %cmp3, i32 %dstSize, i32 2147483647
  call void @llvm.lifetime.start.p0(i64 4, ptr nonnull %length8.i)
  call void @llvm.lifetime.start.p0(i64 4, ptr nonnull %errorCode.i)
  %fUnion.i.i.i.i = getelementptr inbounds i8, ptr %this, i64 8
  %0 = load i16, ptr %fUnion.i.i.i.i, align 8
  %fLength.i.i.i = getelementptr inbounds i8, ptr %this, i64 12
  %1 = load i32, ptr %fLength.i.i.i, align 4
  store i32 0, ptr %errorCode.i, align 4
  %conv1.i.i = zext i16 %0 to i32
  %and.i.i = and i32 %conv1.i.i, 17
  %tobool.not.i.i = icmp eq i32 %and.i.i, 0
  br i1 %tobool.not.i.i, label %if.else.i1.i, label %_ZNK6icu_7513UnicodeString6toUTF8EiiPci.exit

if.else.i1.i:                                     ; preds = %if.end
  %and5.i.i = and i32 %conv1.i.i, 2
  %tobool6.not.i.i = icmp eq i32 %and5.i.i, 0
  br i1 %tobool6.not.i.i, label %if.else9.i.i, label %if.then7.i.i

if.then7.i.i:                                     ; preds = %if.else.i1.i
  %fBuffer.i.i = getelementptr inbounds i8, ptr %this, i64 10
  br label %_ZNK6icu_7513UnicodeString6toUTF8EiiPci.exit

if.else9.i.i:                                     ; preds = %if.else.i1.i
  %fArray.i.i = getelementptr inbounds i8, ptr %this, i64 24
  %2 = load ptr, ptr %fArray.i.i, align 8
  br label %_ZNK6icu_7513UnicodeString6toUTF8EiiPci.exit

_ZNK6icu_7513UnicodeString6toUTF8EiiPci.exit:     ; preds = %if.end, %if.then7.i.i, %if.else9.i.i
  %retval.0.i.i = phi ptr [ %fBuffer.i.i, %if.then7.i.i ], [ %2, %if.else9.i.i ], [ null, %if.end ]
  %cmp5.i.i = icmp slt i32 %len, 0
  %cmp.i.i.i.i = icmp slt i16 %0, 0
  %3 = ashr i16 %0, 5
  %shr.i.i.i.i = sext i16 %3 to i32
  %cond.i.i.i = select i1 %cmp.i.i.i.i, i32 %1, i32 %shr.i.i.i.i
  %cmp.i.i = icmp slt i32 %start, 0
  %spec.select4.i = tail call i32 @llvm.smin.i32(i32 %cond.i.i.i, i32 %start)
  %4 = select i1 %cmp.i.i, i32 0, i32 %spec.select4.i
  %sub.i.i = sub nsw i32 %cond.i.i.i, %4
  %spec.select5.i = tail call i32 @llvm.smin.i32(i32 %sub.i.i, i32 %len)
  %len.addr.0.i = select i1 %cmp5.i.i, i32 0, i32 %spec.select5.i
  %idx.ext.i = sext i32 %4 to i64
  %add.ptr.i = getelementptr inbounds i16, ptr %retval.0.i.i, i64 %idx.ext.i
  %call2.i = call ptr @u_strToUTF8WithSub_75(ptr noundef %target, i32 noundef %cond, ptr noundef nonnull %length8.i, ptr noundef %add.ptr.i, i32 noundef %len.addr.0.i, i32 noundef 65533, ptr noundef null, ptr noundef nonnull %errorCode.i)
  %5 = load i32, ptr %length8.i, align 4
  call void @llvm.lifetime.end.p0(i64 4, ptr nonnull %length8.i)
  call void @llvm.lifetime.end.p0(i64 4, ptr nonnull %errorCode.i)
  br label %return

return:                                           ; preds = %entry, %_ZNK6icu_7513UnicodeString6toUTF8EiiPci.exit
  %retval.0 = phi i32 [ %5, %_ZNK6icu_7513UnicodeString6toUTF8EiiPci.exit ], [ 0, %entry ]
  ret i32 %retval.0
}